; Function Attrs: mustprogress uwtable
define void @_ZNK8proxygen26PassThroughHTTPCodecFilter18getCompressionInfoEv(ptr noalias sret(%"struct.proxygen::CompressionInfo") align 4 %agg.result, ptr nocapture noundef nonnull readonly align 8 dereferenceable(72) %this) unnamed_addr #3 align 2 {
entry:
  %call_ = getelementptr inbounds i8, ptr %this, i64 24
  %0 = load ptr, ptr %call_, align 8
  %vtable = load ptr, ptr %0, align 8
  %vfn = getelementptr inbounds i8, ptr %vtable, i64 16
  %1 = load ptr, ptr %vfn, align 8
  tail call void %1(ptr sret(%"struct.proxygen::CompressionInfo") align 4 %agg.result, ptr noundef nonnull align 8 dereferenceable(8) %0)
  ret void
}